; ModuleID = '32/1832.c'
source_filename = "32/1832.c"
target datalayout = "e-m:e-p270:32:32-p271:32:32-p272:64:64-i64:64-f80:128-n8:16:32:64-S128"
target triple = "x86_64-pc-linux-gnu"

@.str = private unnamed_addr constant [3 x i8] c"%d\00", align 1

; Function Attrs: noinline nounwind uwtable
define dso_local void @main() #0 {
  %1 = alloca i32, align 4
  %2 = alloca i32, align 4
  %3 = alloca i32, align 4
  %4 = alloca i32, align 4
  %5 = alloca i32, align 4
  %6 = alloca i32, align 4
  %7 = alloca [100 x [100 x i8]], align 16
  %8 = alloca [100 x [100 x i8]], align 16
  %9 = call i32 (i8*, ...) @__isoc99_scanf(i8* getelementptr inbounds ([3 x i8], [3 x i8]* @.str, i64 0, i64 0), i32* %1)
  store i32 0, i32* %2, align 4
  br label %10

10:                                               ; preds = %26, %0
  %11 = load i32, i32* %2, align 4
  %12 = load i32, i32* %1, align 4
  %13 = icmp slt i32 %11, %12
  br i1 %13, label %14, label %29

14:                                               ; preds = %10
  %15 = call i32 @getchar()
  %16 = load i32, i32* %2, align 4
  %17 = sext i32 %16 to i64
  %18 = getelementptr inbounds [100 x [100 x i8]], [100 x [100 x i8]]* %7, i64 0, i64 %17
  %19 = getelementptr inbounds [100 x i8], [100 x i8]* %18, i64 0, i64 0
  %20 = call i32 (i8*, ...) bitcast (i32 (...)* @gets to i32 (i8*, ...)*)(i8* %19)
  %21 = load i32, i32* %2, align 4
  %22 = sext i32 %21 to i64
  %23 = getelementptr inbounds [100 x [100 x i8]], [100 x [100 x i8]]* %8, i64 0, i64 %22
  %24 = getelementptr inbounds [100 x i8], [100 x i8]* %23, i64 0, i64 0
  %25 = call i32 (i8*, ...) bitcast (i32 (...)* @gets to i32 (i8*, ...)*)(i8* %24)
  br label %26

26:                                               ; preds = %14
  %27 = load i32, i32* %2, align 4
  %28 = add nsw i32 %27, 1
  store i32 %28, i32* %2, align 4
  br label %10

29:                                               ; preds = %10
  store i32 0, i32* %2, align 4
  br label %30

30:                                               ; preds = %244, %29
  %31 = load i32, i32* %2, align 4
  %32 = load i32, i32* %1, align 4
  %33 = icmp slt i32 %31, %32
  br i1 %33, label %34, label %247

34:                                               ; preds = %30
  %35 = load i32, i32* %2, align 4
  %36 = sext i32 %35 to i64
  %37 = getelementptr inbounds [100 x [100 x i8]], [100 x [100 x i8]]* %7, i64 0, i64 %36
  %38 = getelementptr inbounds [100 x i8], [100 x i8]* %37, i64 0, i64 0
  %39 = call i64 @strlen(i8* %38) #3
  %40 = trunc i64 %39 to i32
  store i32 %40, i32* %4, align 4
  %41 = load i32, i32* %2, align 4
  %42 = sext i32 %41 to i64
  %43 = getelementptr inbounds [100 x [100 x i8]], [100 x [100 x i8]]* %8, i64 0, i64 %42
  %44 = getelementptr inbounds [100 x i8], [100 x i8]* %43, i64 0, i64 0
  %45 = call i64 @strlen(i8* %44) #3
  %46 = trunc i64 %45 to i32
  store i32 %46, i32* %5, align 4
  store i32 0, i32* %3, align 4
  br label %47

47:                                               ; preds = %235, %34
  %48 = load i32, i32* %3, align 4
  %49 = load i32, i32* %5, align 4
  %50 = icmp slt i32 %48, %49
  br i1 %50, label %51, label %238

51:                                               ; preds = %47
  %52 = load i32, i32* %2, align 4
  %53 = sext i32 %52 to i64
  %54 = getelementptr inbounds [100 x [100 x i8]], [100 x [100 x i8]]* %7, i64 0, i64 %53
  %55 = load i32, i32* %4, align 4
  %56 = load i32, i32* %3, align 4
  %57 = sub nsw i32 %55, %56
  %58 = sub nsw i32 %57, 1
  %59 = sext i32 %58 to i64
  %60 = getelementptr inbounds [100 x i8], [100 x i8]* %54, i64 0, i64 %59
  %61 = load i8, i8* %60, align 1
  %62 = sext i8 %61 to i32
  %63 = load i32, i32* %2, align 4
  %64 = sext i32 %63 to i64
  %65 = getelementptr inbounds [100 x [100 x i8]], [100 x [100 x i8]]* %8, i64 0, i64 %64
  %66 = load i32, i32* %5, align 4
  %67 = load i32, i32* %3, align 4
  %68 = sub nsw i32 %66, %67
  %69 = sub nsw i32 %68, 1
  %70 = sext i32 %69 to i64
  %71 = getelementptr inbounds [100 x i8], [100 x i8]* %65, i64 0, i64 %70
  %72 = load i8, i8* %71, align 1
  %73 = sext i8 %72 to i32
  %74 = icmp sge i32 %62, %73
  br i1 %74, label %75, label %110

75:                                               ; preds = %51
  %76 = load i32, i32* %2, align 4
  %77 = sext i32 %76 to i64
  %78 = getelementptr inbounds [100 x [100 x i8]], [100 x [100 x i8]]* %7, i64 0, i64 %77
  %79 = load i32, i32* %4, align 4
  %80 = load i32, i32* %3, align 4
  %81 = sub nsw i32 %79, %80
  %82 = sub nsw i32 %81, 1
  %83 = sext i32 %82 to i64
  %84 = getelementptr inbounds [100 x i8], [100 x i8]* %78, i64 0, i64 %83
  %85 = load i8, i8* %84, align 1
  %86 = sext i8 %85 to i32
  %87 = load i32, i32* %2, align 4
  %88 = sext i32 %87 to i64
  %89 = getelementptr inbounds [100 x [100 x i8]], [100 x [100 x i8]]* %8, i64 0, i64 %88
  %90 = load i32, i32* %5, align 4
  %91 = load i32, i32* %3, align 4
  %92 = sub nsw i32 %90, %91
  %93 = sub nsw i32 %92, 1
  %94 = sext i32 %93 to i64
  %95 = getelementptr inbounds [100 x i8], [100 x i8]* %89, i64 0, i64 %94
  %96 = load i8, i8* %95, align 1
  %97 = sext i8 %96 to i32
  %98 = sub nsw i32 %86, %97
  %99 = add nsw i32 %98, 48
  %100 = trunc i32 %99 to i8
  %101 = load i32, i32* %2, align 4
  %102 = sext i32 %101 to i64
  %103 = getelementptr inbounds [100 x [100 x i8]], [100 x [100 x i8]]* %7, i64 0, i64 %102
  %104 = load i32, i32* %4, align 4
  %105 = load i32, i32* %3, align 4
  %106 = sub nsw i32 %104, %105
  %107 = sub nsw i32 %106, 1
  %108 = sext i32 %107 to i64
  %109 = getelementptr inbounds [100 x i8], [100 x i8]* %103, i64 0, i64 %108
  store i8 %100, i8* %109, align 1
  br label %234

110:                                              ; preds = %51
  %111 = load i32, i32* %2, align 4
  %112 = sext i32 %111 to i64
  %113 = getelementptr inbounds [100 x [100 x i8]], [100 x [100 x i8]]* %7, i64 0, i64 %112
  %114 = load i32, i32* %4, align 4
  %115 = load i32, i32* %3, align 4
  %116 = sub nsw i32 %114, %115
  %117 = sub nsw i32 %116, 1
  %118 = sext i32 %117 to i64
  %119 = getelementptr inbounds [100 x i8], [100 x i8]* %113, i64 0, i64 %118
  %120 = load i8, i8* %119, align 1
  %121 = sext i8 %120 to i32
  %122 = load i32, i32* %2, align 4
  %123 = sext i32 %122 to i64
  %124 = getelementptr inbounds [100 x [100 x i8]], [100 x [100 x i8]]* %8, i64 0, i64 %123
  %125 = load i32, i32* %5, align 4
  %126 = load i32, i32* %3, align 4
  %127 = sub nsw i32 %125, %126
  %128 = sub nsw i32 %127, 1
  %129 = sext i32 %128 to i64
  %130 = getelementptr inbounds [100 x i8], [100 x i8]* %124, i64 0, i64 %129
  %131 = load i8, i8* %130, align 1
  %132 = sext i8 %131 to i32
  %133 = sub nsw i32 %121, %132
  %134 = add nsw i32 %133, 58
  %135 = trunc i32 %134 to i8
  %136 = load i32, i32* %2, align 4
  %137 = sext i32 %136 to i64
  %138 = getelementptr inbounds [100 x [100 x i8]], [100 x [100 x i8]]* %7, i64 0, i64 %137
  %139 = load i32, i32* %4, align 4
  %140 = load i32, i32* %3, align 4
  %141 = sub nsw i32 %139, %140
  %142 = sub nsw i32 %141, 1
  %143 = sext i32 %142 to i64
  %144 = getelementptr inbounds [100 x i8], [100 x i8]* %138, i64 0, i64 %143
  store i8 %135, i8* %144, align 1
  %145 = load i32, i32* %2, align 4
  %146 = sext i32 %145 to i64
  %147 = getelementptr inbounds [100 x [100 x i8]], [100 x [100 x i8]]* %7, i64 0, i64 %146
  %148 = load i32, i32* %4, align 4
  %149 = load i32, i32* %3, align 4
  %150 = sub nsw i32 %148, %149
  %151 = sub nsw i32 %150, 2
  %152 = sext i32 %151 to i64
  %153 = getelementptr inbounds [100 x i8], [100 x i8]* %147, i64 0, i64 %152
  %154 = load i8, i8* %153, align 1
  %155 = sext i8 %154 to i32
  %156 = icmp ne i32 %155, 48
  br i1 %156, label %157, label %180

157:                                              ; preds = %110
  %158 = load i32, i32* %2, align 4
  %159 = sext i32 %158 to i64
  %160 = getelementptr inbounds [100 x [100 x i8]], [100 x [100 x i8]]* %7, i64 0, i64 %159
  %161 = load i32, i32* %4, align 4
  %162 = load i32, i32* %3, align 4
  %163 = sub nsw i32 %161, %162
  %164 = sub nsw i32 %163, 2
  %165 = sext i32 %164 to i64
  %166 = getelementptr inbounds [100 x i8], [100 x i8]* %160, i64 0, i64 %165
  %167 = load i8, i8* %166, align 1
  %168 = sext i8 %167 to i32
  %169 = sub nsw i32 %168, 1
  %170 = trunc i32 %169 to i8
  %171 = load i32, i32* %2, align 4
  %172 = sext i32 %171 to i64
  %173 = getelementptr inbounds [100 x [100 x i8]], [100 x [100 x i8]]* %7, i64 0, i64 %172
  %174 = load i32, i32* %4, align 4
  %175 = load i32, i32* %3, align 4
  %176 = sub nsw i32 %174, %175
  %177 = sub nsw i32 %176, 2
  %178 = sext i32 %177 to i64
  %179 = getelementptr inbounds [100 x i8], [100 x i8]* %173, i64 0, i64 %178
  store i8 %170, i8* %179, align 1
  br label %233

180:                                              ; preds = %110
  %181 = load i32, i32* %2, align 4
  %182 = sext i32 %181 to i64
  %183 = getelementptr inbounds [100 x [100 x i8]], [100 x [100 x i8]]* %7, i64 0, i64 %182
  %184 = load i32, i32* %4, align 4
  %185 = load i32, i32* %3, align 4
  %186 = sub nsw i32 %184, %185
  %187 = sub nsw i32 %186, 2
  %188 = sext i32 %187 to i64
  %189 = getelementptr inbounds [100 x i8], [100 x i8]* %183, i64 0, i64 %188
  store i8 57, i8* %189, align 1
  store i32 3, i32* %6, align 4
  br label %190

190:                                              ; preds = %229, %180
  %191 = load i32, i32* %2, align 4
  %192 = sext i32 %191 to i64
  %193 = getelementptr inbounds [100 x [100 x i8]], [100 x [100 x i8]]* %7, i64 0, i64 %192
  %194 = load i32, i32* %4, align 4
  %195 = load i32, i32* %3, align 4
  %196 = sub nsw i32 %194, %195
  %197 = load i32, i32* %6, align 4
  %198 = sub nsw i32 %196, %197
  %199 = sext i32 %198 to i64
  %200 = getelementptr inbounds [100 x i8], [100 x i8]* %193, i64 0, i64 %199
  %201 = load i8, i8* %200, align 1
  %202 = sext i8 %201 to i32
  %203 = icmp ne i32 %202, 48
  br i1 %203, label %204, label %217

204:                                              ; preds = %190
  %205 = load i32, i32* %2, align 4
  %206 = sext i32 %205 to i64
  %207 = getelementptr inbounds [100 x [100 x i8]], [100 x [100 x i8]]* %7, i64 0, i64 %206
  %208 = load i32, i32* %4, align 4
  %209 = load i32, i32* %3, align 4
  %210 = sub nsw i32 %208, %209
  %211 = load i32, i32* %6, align 4
  %212 = sub nsw i32 %210, %211
  %213 = sext i32 %212 to i64
  %214 = getelementptr inbounds [100 x i8], [100 x i8]* %207, i64 0, i64 %213
  %215 = load i8, i8* %214, align 1
  %216 = add i8 %215, -1
  store i8 %216, i8* %214, align 1
  br label %232

217:                                              ; preds = %190
  %218 = load i32, i32* %2, align 4
  %219 = sext i32 %218 to i64
  %220 = getelementptr inbounds [100 x [100 x i8]], [100 x [100 x i8]]* %7, i64 0, i64 %219
  %221 = load i32, i32* %4, align 4
  %222 = load i32, i32* %3, align 4
  %223 = sub nsw i32 %221, %222
  %224 = load i32, i32* %6, align 4
  %225 = sub nsw i32 %223, %224
  %226 = sext i32 %225 to i64
  %227 = getelementptr inbounds [100 x i8], [100 x i8]* %220, i64 0, i64 %226
  store i8 57, i8* %227, align 1
  br label %228

228:                                              ; preds = %217
  br label %229

229:                                              ; preds = %228
  %230 = load i32, i32* %6, align 4
  %231 = add nsw i32 %230, 1
  store i32 %231, i32* %6, align 4
  br label %190

232:                                              ; preds = %204
  br label %233

233:                                              ; preds = %232, %157
  br label %234

234:                                              ; preds = %233, %75
  br label %235

235:                                              ; preds = %234
  %236 = load i32, i32* %3, align 4
  %237 = add nsw i32 %236, 1
  store i32 %237, i32* %3, align 4
  br label %47

238:                                              ; preds = %47
  %239 = load i32, i32* %2, align 4
  %240 = sext i32 %239 to i64
  %241 = getelementptr inbounds [100 x [100 x i8]], [100 x [100 x i8]]* %7, i64 0, i64 %240
  %242 = getelementptr inbounds [100 x i8], [100 x i8]* %241, i64 0, i64 0
  %243 = call i32 @puts(i8* %242)
  br label %244

244:                                              ; preds = %238
  %245 = load i32, i32* %2, align 4
  %246 = add nsw i32 %245, 1
  store i32 %246, i32* %2, align 4
  br label %30

247:                                              ; preds = %30
  ret void
}

declare dso_local i32 @__isoc99_scanf(i8*, ...) #1

declare dso_local i32 @getchar() #1

declare dso_local i32 @gets(...) #1

; Function Attrs: nounwind readonly
declare dso_local i64 @strlen(i8*) #2

declare dso_local i32 @puts(i8*) #1


!llvm.module.flags = !{!0}
!llvm.ident = !{!1}

!0 = !{i32 1, !"wchar_size", i32 4}
!1 = !{!"clang version 10.0.0-4ubuntu1 "}
