; ModuleID = 'source-C-CXX/31/1832.c'
source_filename = "source-C-CXX/31/1832.c"
target datalayout = "e-m:e-p270:32:32-p271:32:32-p272:64:64-i64:64-f80:128-n8:16:32:64-S128"
target triple = "x86_64-pc-linux-gnu"

%struct._IO_FILE = type { i32, i8*, i8*, i8*, i8*, i8*, i8*, i8*, i8*, i8*, i8*, i8*, %struct._IO_marker*, %struct._IO_FILE*, i32, i32, i64, i16, i8, [1 x i8], i8*, i64, %struct._IO_codecvt*, %struct._IO_wide_data*, %struct._IO_FILE*, i8*, i64, i32, [20 x i8] }
%struct._IO_marker = type opaque
%struct._IO_codecvt = type opaque
%struct._IO_wide_data = type opaque

@.str = private unnamed_addr constant [3 x i8] c"%d\00", align 1
@stdin = external local_unnamed_addr global %struct._IO_FILE*, align 8

; Function Attrs: nounwind sspstrong uwtable
define dso_local void @main() local_unnamed_addr #0 {
  %1 = alloca i32, align 4
  %2 = alloca [100 x [100 x i8]], align 16
  %3 = alloca [100 x [100 x i8]], align 16
  %4 = bitcast i32* %1 to i8*
  call void @llvm.lifetime.start.p0i8(i64 4, i8* nonnull %4) #5
  %5 = getelementptr inbounds [100 x [100 x i8]], [100 x [100 x i8]]* %2, i64 0, i64 0, i64 0
  call void @llvm.lifetime.start.p0i8(i64 10000, i8* nonnull %5) #5
  %6 = getelementptr inbounds [100 x [100 x i8]], [100 x [100 x i8]]* %3, i64 0, i64 0, i64 0
  call void @llvm.lifetime.start.p0i8(i64 10000, i8* nonnull %6) #5
  %7 = call i32 (i8*, ...) @__isoc99_scanf(i8* getelementptr inbounds ([3 x i8], [3 x i8]* @.str, i64 0, i64 0), i32* nonnull %1)
  %8 = load i32, i32* %1, align 4, !tbaa !5
  %9 = icmp sgt i32 %8, 0
  br i1 %9, label %12, label %88

10:                                               ; preds = %12
  %11 = icmp sgt i32 %21, 0
  br i1 %11, label %24, label %88

12:                                               ; preds = %0, %12
  %13 = phi i64 [ %20, %12 ], [ 0, %0 ]
  %14 = load %struct._IO_FILE*, %struct._IO_FILE** @stdin, align 8, !tbaa !9
  %15 = call i32 @getc(%struct._IO_FILE* %14) #5
  %16 = getelementptr inbounds [100 x [100 x i8]], [100 x [100 x i8]]* %2, i64 0, i64 %13, i64 0
  %17 = call i32 (i8*, ...) bitcast (i32 (...)* @gets to i32 (i8*, ...)*)(i8* nonnull %16) #5
  %18 = getelementptr inbounds [100 x [100 x i8]], [100 x [100 x i8]]* %3, i64 0, i64 %13, i64 0
  %19 = call i32 (i8*, ...) bitcast (i32 (...)* @gets to i32 (i8*, ...)*)(i8* nonnull %18) #5
  %20 = add nuw nsw i64 %13, 1
  %21 = load i32, i32* %1, align 4, !tbaa !5
  %22 = sext i32 %21 to i64
  %23 = icmp slt i64 %20, %22
  br i1 %23, label %12, label %10, !llvm.loop !11

24:                                               ; preds = %10, %82
  %25 = phi i64 [ %84, %82 ], [ 0, %10 ]
  %26 = getelementptr inbounds [100 x [100 x i8]], [100 x [100 x i8]]* %2, i64 0, i64 %25, i64 0
  %27 = getelementptr inbounds [100 x [100 x i8]], [100 x [100 x i8]]* %3, i64 0, i64 %25, i64 0
  %28 = call i64 @strlen(i8* noundef nonnull %27) #6
  %29 = trunc i64 %28 to i32
  %30 = icmp sgt i32 %29, 0
  br i1 %30, label %31, label %82

31:                                               ; preds = %24
  %32 = call i64 @strlen(i8* noundef nonnull %26) #6
  %33 = shl i64 %32, 32
  %34 = ashr exact i64 %33, 32
  %35 = and i64 %28, 4294967295
  br label %36

36:                                               ; preds = %31, %79
  %37 = phi i64 [ 0, %31 ], [ %80, %79 ]
  %38 = sub nsw i64 %34, %37
  %39 = add nsw i64 %38, -1
  %40 = getelementptr inbounds [100 x [100 x i8]], [100 x [100 x i8]]* %2, i64 0, i64 %25, i64 %39
  %41 = load i8, i8* %40, align 1, !tbaa !13
  %42 = xor i64 %37, -1
  %43 = add i64 %28, %42
  %44 = shl i64 %43, 32
  %45 = ashr exact i64 %44, 32
  %46 = getelementptr inbounds [100 x [100 x i8]], [100 x [100 x i8]]* %3, i64 0, i64 %25, i64 %45
  %47 = load i8, i8* %46, align 1, !tbaa !13
  %48 = icmp slt i8 %41, %47
  br i1 %48, label %52, label %49

49:                                               ; preds = %36
  %50 = add i8 %41, 48
  %51 = sub i8 %50, %47
  store i8 %51, i8* %40, align 1, !tbaa !13
  br label %79

52:                                               ; preds = %36
  %53 = add i8 %41, 58
  %54 = sub i8 %53, %47
  store i8 %54, i8* %40, align 1, !tbaa !13
  %55 = add nsw i64 %38, -2
  %56 = getelementptr inbounds [100 x [100 x i8]], [100 x [100 x i8]]* %2, i64 0, i64 %25, i64 %55
  %57 = load i8, i8* %56, align 1, !tbaa !13
  %58 = icmp eq i8 %57, 48
  br i1 %58, label %61, label %59

59:                                               ; preds = %52
  %60 = add i8 %57, -1
  store i8 %60, i8* %56, align 1, !tbaa !13
  br label %79

61:                                               ; preds = %52
  store i8 57, i8* %56, align 1, !tbaa !13
  %62 = add nsw i64 %38, -3
  %63 = getelementptr inbounds [100 x [100 x i8]], [100 x [100 x i8]]* %2, i64 0, i64 %25, i64 %62
  %64 = load i8, i8* %63, align 1, !tbaa !13
  %65 = icmp eq i8 %64, 48
  br i1 %65, label %70, label %66

66:                                               ; preds = %70, %61
  %67 = phi i8* [ %63, %61 ], [ %76, %70 ]
  %68 = phi i8 [ %64, %61 ], [ %77, %70 ]
  %69 = add i8 %68, -1
  store i8 %69, i8* %67, align 1, !tbaa !13
  br label %79

70:                                               ; preds = %61, %70
  %71 = phi i8* [ %76, %70 ], [ %63, %61 ]
  %72 = phi i32 [ %73, %70 ], [ 3, %61 ]
  store i8 57, i8* %71, align 1, !tbaa !13
  %73 = add nuw nsw i32 %72, 1
  %74 = zext i32 %73 to i64
  %75 = sub nsw i64 %38, %74
  %76 = getelementptr inbounds [100 x [100 x i8]], [100 x [100 x i8]]* %2, i64 0, i64 %25, i64 %75
  %77 = load i8, i8* %76, align 1, !tbaa !13
  %78 = icmp eq i8 %77, 48
  br i1 %78, label %70, label %66

79:                                               ; preds = %49, %66, %59
  %80 = add nuw nsw i64 %37, 1
  %81 = icmp eq i64 %80, %35
  br i1 %81, label %82, label %36, !llvm.loop !14

82:                                               ; preds = %79, %24
  %83 = call i32 @puts(i8* nonnull %26)
  %84 = add nuw nsw i64 %25, 1
  %85 = load i32, i32* %1, align 4, !tbaa !5
  %86 = sext i32 %85 to i64
  %87 = icmp slt i64 %84, %86
  br i1 %87, label %24, label %88, !llvm.loop !15

88:                                               ; preds = %82, %0, %10
  call void @llvm.lifetime.end.p0i8(i64 10000, i8* nonnull %6) #5
  call void @llvm.lifetime.end.p0i8(i64 10000, i8* nonnull %5) #5
  call void @llvm.lifetime.end.p0i8(i64 4, i8* nonnull %4) #5
  ret void
}

; Function Attrs: argmemonly mustprogress nofree nosync nounwind willreturn
declare void @llvm.lifetime.start.p0i8(i64 immarg, i8* nocapture) #1

; Function Attrs: nofree nounwind
declare noundef i32 @__isoc99_scanf(i8* nocapture noundef readonly, ...) local_unnamed_addr #2

declare i32 @gets(...) local_unnamed_addr #3

; Function Attrs: argmemonly mustprogress nofree nounwind readonly willreturn
declare i64 @strlen(i8* nocapture) local_unnamed_addr #4

; Function Attrs: nofree nounwind
declare noundef i32 @puts(i8* nocapture noundef readonly) local_unnamed_addr #2

; Function Attrs: argmemonly mustprogress nofree nosync nounwind willreturn
declare void @llvm.lifetime.end.p0i8(i64 immarg, i8* nocapture) #1

; Function Attrs: nofree nounwind
declare noundef i32 @getc(%struct._IO_FILE* nocapture noundef) local_unnamed_addr #2


!llvm.module.flags = !{!0, !1, !2, !3}
!llvm.ident = !{!4}

!0 = !{i32 1, !"wchar_size", i32 4}
!1 = !{i32 7, !"PIC Level", i32 2}
!2 = !{i32 7, !"PIE Level", i32 2}
!3 = !{i32 7, !"uwtable", i32 1}
!4 = !{!"clang version 13.0.0"}
!5 = !{!6, !6, i64 0}
!6 = !{!"int", !7, i64 0}
!7 = !{!"omnipotent char", !8, i64 0}
!8 = !{!"Simple C/C++ TBAA"}
!9 = !{!10, !10, i64 0}
!10 = !{!"any pointer", !7, i64 0}
!11 = distinct !{!11, !12}
!12 = !{!"llvm.loop.mustprogress"}
!13 = !{!7, !7, i64 0}
!14 = distinct !{!14, !12}
!15 = distinct !{!15, !12}
